target datalayout = "e-m:e-p270:32:32-p271:32:32-p272:64:64-i64:64-i128:128-f80:128-n8:16:32:64-S128"
target triple = "x86_64-pc-linux-gnu"

%"class.std::__cxx11::basic_string" = type { %"struct.std::__cxx11::basic_string<char>::_Alloc_hider", i64, %union.anon }
%"struct.std::__cxx11::basic_string<char>::_Alloc_hider" = type { ptr }
%union.anon = type { i64, [8 x i8] }

@_ZN32pxrInternal_v0_24__pxrReserved__L13_IndentStringE = internal global ptr @.str.34, align 8

; Function Attrs: mustprogress uwtable
define void @_ZN32pxrInternal_v0_24__pxrReserved__17Sdf_FileIOUtility4PutsERNS_14Sdf_TextOutputEmRKNSt7__cxx1112basic_stringIcSt11char_traitsIcESaIcEEE(ptr noundef nonnull align 8 dereferenceable(48) %0, i64 noundef %1, ptr noundef nonnull align 8 dereferenceable(32) %2) #0 align 2 {
  %4 = alloca ptr, align 8
  %5 = alloca i64, align 8
  %6 = alloca ptr, align 8
  %7 = alloca i64, align 8
  store ptr %0, ptr %4, align 8
  store i64 %1, ptr %5, align 8
  store ptr %2, ptr %6, align 8
  store i64 0, ptr %7, align 8
  br label %8

8:                                                ; preds = %16, %3
  %9 = load i64, ptr %7, align 8
  %10 = load i64, ptr %5, align 8
  %11 = icmp ult i64 %9, %10
  br i1 %11, label %12, label %19

12:                                               ; preds = %8
  %13 = load ptr, ptr %4, align 8
  %14 = load ptr, ptr @_ZN32pxrInternal_v0_24__pxrReserved__L13_IndentStringE, align 8
  %15 = call noundef zeroext i1 @_ZN32pxrInternal_v0_24__pxrReserved__14Sdf_TextOutput5WriteEPKc(ptr noundef nonnull align 8 dereferenceable(48) %13, ptr noundef %14)
  br label %16

16:                                               ; preds = %12
  %17 = load i64, ptr %7, align 8
  %18 = add i64 %17, 1
  store i64 %18, ptr %7, align 8
  br label %8, !llvm.loop !4

19:                                               ; preds = %8
  %20 = load ptr, ptr %4, align 8
  %21 = load ptr, ptr %6, align 8
  %22 = call noundef zeroext i1 @_ZN32pxrInternal_v0_24__pxrReserved__14Sdf_TextOutput5WriteERKNSt7__cxx1112basic_stringIcSt11char_traitsIcESaIcEEE(ptr noundef nonnull align 8 dereferenceable(48) %20, ptr noundef nonnull align 8 dereferenceable(32) %21)
  ret void
}

; Function Attrs: mustprogress uwtable
define void @_ZN32pxrInternal_v0_24__pxrReserved__17Sdf_FileIOUtility17WriteQuotedStringERNS_14Sdf_TextOutputEmRKNSt7__cxx1112basic_stringIcSt11char_traitsIcESaIcEEE(ptr noundef nonnull align 8 dereferenceable(48) %0, i64 noundef %1, ptr noundef nonnull align 8 dereferenceable(32) %2) #0 align 2 personality ptr @__gxx_personality_v0 {
  %4 = alloca ptr, align 8
  %5 = alloca i64, align 8
  %6 = alloca ptr, align 8
  %7 = alloca %"class.std::__cxx11::basic_string", align 8
  %8 = alloca ptr, align 8
  %9 = alloca i32, align 4
  store ptr %0, ptr %4, align 8
  store i64 %1, ptr %5, align 8
  store ptr %2, ptr %6, align 8
  %10 = load ptr, ptr %4, align 8
  %11 = load i64, ptr %5, align 8
  %12 = load ptr, ptr %6, align 8
  call void @_ZN32pxrInternal_v0_24__pxrReserved__17Sdf_FileIOUtility5QuoteERKNSt7__cxx1112basic_stringIcSt11char_traitsIcESaIcEEE(ptr dead_on_unwind writable sret(%"class.std::__cxx11::basic_string") align 8 %7, ptr noundef nonnull align 8 dereferenceable(32) %12)
  invoke void @_ZN32pxrInternal_v0_24__pxrReserved__17Sdf_FileIOUtility4PutsERNS_14Sdf_TextOutputEmRKNSt7__cxx1112basic_stringIcSt11char_traitsIcESaIcEEE(ptr noundef nonnull align 8 dereferenceable(48) %10, i64 noundef %11, ptr noundef nonnull align 8 dereferenceable(32) %7)
          to label %13 unwind label %14

13:                                               ; preds = %3
  call void @_ZNSt7__cxx1112basic_stringIcSt11char_traitsIcESaIcEED1Ev(ptr noundef nonnull align 8 dereferenceable(32) %7) #13
  ret void

14:                                               ; preds = %3
  %15 = landingpad { ptr, i32 }
          cleanup
  %16 = extractvalue { ptr, i32 } %15, 0
  store ptr %16, ptr %8, align 8
  %17 = extractvalue { ptr, i32 } %15, 1
  store i32 %17, ptr %9, align 4
  call void @_ZNSt7__cxx1112basic_stringIcSt11char_traitsIcESaIcEED1Ev(ptr noundef nonnull align 8 dereferenceable(32) %7) #13
  br label %18

18:                                               ; preds = %14
  %19 = load ptr, ptr %8, align 8
  %20 = load i32, ptr %9, align 4
  %21 = insertvalue { ptr, i32 } poison, ptr %19, 0
  %22 = insertvalue { ptr, i32 } %21, i32 %20, 1
  resume { ptr, i32 } %22
}